ccopy_reg
_reconstructor
p0
(cgoogle.oauth2.credentials
Credentials
p1
c__builtin__
object
p2
Ntp3
Rp4
(dp5
S'_quota_project_id'
p6
NsS'_token_uri'
p7
Vhttps://oauth2.googleapis.com/token
p8
sS'_client_secret'
p9
VWVUg9tMLqvPDECNRMZOVT12M
p10
sS'_id_token'
p11
NsS'token'
p12
Vya29.a0AfH6SMBXRebAkXBDZMosY1r5ZK9tDSPMu6fPNjbNGAA6gXm5bXLtpQv47ATsp0BP16KbHUXbLkbjD8GGxwXNOtCcdD5NJGWjZZmukqPw3k-FLGgL-gMyZgh6RzffGTekXfPJH93igIovz0MEKU8kgTfz9CtTZIAmTfTW
p13
sS'_refresh_token'
p14
V1//06TyPoa_9gW3ACgYIARAAGAYSNwF-L9Irp2_jYAxy2OBFSKgtbq9EdLeMMb5AbC0bMATEm7sstivwAYyfMNNEPrTpV2XHbIwEoOE
p15
sS'_scopes'
p16
(lp17
S'https://www.googleapis.com/auth/calendar.readonly'
p18
asS'_client_id'
p19
V36048136398-rqnuk9br7ejveqcra76022fdia6k2usa.apps.googleusercontent.com
p20
sS'expiry'
p21
cdatetime
datetime
p22
(S'\x07\xe4\x08\x0f\x15()\x04\r\xe8'
p23
tp24
Rp25
sb.